---
triple:          'x86_64-apple-darwin'
binary-path:     neuron2neuron
relocations:
  - { offsetInCU: 0x9FA9, offset: 0x9FA9, size: 0x8, addend: 0x0, symName: __ZNSt3__124__put_character_sequenceB7v160006IcNS_11char_traitsIcEEEERNS_13basic_ostreamIT_T0_EES7_PKS4_m, symObjAddr: 0x2180, symBinAddr: 0x100005A50, symSize: 0x150 }
  - { offsetInCU: 0xC754, offset: 0xC754, size: 0x8, addend: 0x0, symName: __ZNSt3__130__uninitialized_allocator_copyB7v160006INS_9allocatorINS_6vectorIiNS1_IiEEEEEEPS4_S6_S6_EET2_RT_T0_T1_S7_, symObjAddr: 0x1910, symBinAddr: 0x1000051E0, symSize: 0x1E0 }
  - { offsetInCU: 0xCC13, offset: 0xCC13, size: 0x8, addend: 0x0, symName: __ZNSt3__120__throw_length_errorB7v160006EPKc, symObjAddr: 0x13A0, symBinAddr: 0x100004C70, symSize: 0x50 }
  - { offsetInCU: 0xDB6A, offset: 0xDB6A, size: 0x8, addend: 0x0, symName: __ZNSt3__116__pad_and_outputB7v160006IcNS_11char_traitsIcEEEENS_19ostreambuf_iteratorIT_T0_EES6_PKS4_S8_S8_RNS_8ios_baseES4_, symObjAddr: 0x22D0, symBinAddr: 0x100005BA0, symSize: 0x150 }
  - { offsetInCU: 0xECEE, offset: 0xECEE, size: 0x8, addend: 0x0, symName: __ZSt28__throw_bad_array_new_lengthB7v160006v, symObjAddr: 0x1420, symBinAddr: 0x100004CF0, symSize: 0x40 }
  - { offsetInCU: 0x123D6, offset: 0x123D6, size: 0x8, addend: 0x0, symName: __Z14initNeuronGridRNSt3__16vectorINS0_IiNS_9allocatorIiEEEENS1_IS3_EEEE, symObjAddr: 0x0, symBinAddr: 0x1000038D0, symSize: 0x240 }
  - { offsetInCU: 0x12F5C, offset: 0x12F5C, size: 0x8, addend: 0x0, symName: __Z25initializeSynapticWeightsRNSt3__16vectorINS0_IdNS_9allocatorIdEEEENS1_IS3_EEEEi, symObjAddr: 0x240, symBinAddr: 0x100003B10, symSize: 0x130 }
  - { offsetInCU: 0x134F2, offset: 0x134F2, size: 0x8, addend: 0x0, symName: __ZNSt3__16vectorINS0_IdNS_9allocatorIdEEEENS1_IS3_EEE8__appendEmRKS3_, symObjAddr: 0x1B60, symBinAddr: 0x100005430, symSize: 0x4E0 }
  - { offsetInCU: 0x144D8, offset: 0x144D8, size: 0x8, addend: 0x0, symName: __ZNKSt3__16vectorIdNS_9allocatorIdEEE20__throw_length_errorB7v160006Ev, symObjAddr: 0x1B50, symBinAddr: 0x100005420, symSize: 0x10 }
  - { offsetInCU: 0x14502, offset: 0x14502, size: 0x8, addend: 0x0, symName: __ZNSt3__16vectorINS0_IdNS_9allocatorIdEEEENS1_IS3_EEE8__appendEmRKS3_, symObjAddr: 0x1B60, symBinAddr: 0x100005430, symSize: 0x4E0 }
  - { offsetInCU: 0x14531, offset: 0x14531, size: 0x8, addend: 0x0, symName: __Z21updateSynapticWeightsRNSt3__16vectorINS0_IdNS_9allocatorIdEEEENS1_IS3_EEEERKNS0_INS0_IiNS1_IiEEEENS1_IS8_EEEEii, symObjAddr: 0x370, symBinAddr: 0x100003C40, symSize: 0x120 }
  - { offsetInCU: 0x14659, offset: 0x14659, size: 0x8, addend: 0x0, symName: __Z22applyDecayAndThresholdRNSt3__16vectorINS0_IdNS_9allocatorIdEEEENS1_IS3_EEEEdd, symObjAddr: 0x490, symBinAddr: 0x100003D60, symSize: 0x110 }
  - { offsetInCU: 0x147CC, offset: 0x147CC, size: 0x8, addend: 0x0, symName: __Z18weightedFiringRuleiid, symObjAddr: 0x5A0, symBinAddr: 0x100003E70, symSize: 0x30 }
  - { offsetInCU: 0x1536A, offset: 0x1536A, size: 0x8, addend: 0x0, symName: _main, symObjAddr: 0x5D0, symBinAddr: 0x100003EA0, symSize: 0xD10 }
  - { offsetInCU: 0x16F2A, offset: 0x16F2A, size: 0x8, addend: 0x0, symName: __ZNSt3__16vectorINS0_IiNS_9allocatorIiEEEENS1_IS3_EEEC1ERKS5_, symObjAddr: 0x12E0, symBinAddr: 0x100004BB0, symSize: 0xC0 }
  - { offsetInCU: 0x171A9, offset: 0x171A9, size: 0x8, addend: 0x0, symName: __ZNSt3__16vectorINS0_IiNS_9allocatorIiEEEENS1_IS3_EEE6assignIPS3_Li0EEEvT_S8_, symObjAddr: 0x1470, symBinAddr: 0x100004D40, symSize: 0x230 }
  - { offsetInCU: 0x17D20, offset: 0x17D20, size: 0x8, addend: 0x0, symName: __ZNKSt3__16vectorINS0_IiNS_9allocatorIiEEEENS1_IS3_EEE20__throw_length_errorB7v160006Ev, symObjAddr: 0x1B40, symBinAddr: 0x100005410, symSize: 0x10 }
  - { offsetInCU: 0x17D4A, offset: 0x17D4A, size: 0x8, addend: 0x0, symName: __ZNKSt3__16vectorIdNS_9allocatorIdEEE20__throw_length_errorB7v160006Ev, symObjAddr: 0x1B50, symBinAddr: 0x100005420, symSize: 0x10 }
  - { offsetInCU: 0x17D55, offset: 0x17D55, size: 0x8, addend: 0x0, symName: __ZNSt3__16vectorINS0_IiNS_9allocatorIiEEEENS1_IS3_EEEC1ERKS5_.cold.1, symObjAddr: 0x2420, symBinAddr: 0x100007690, symSize: 0x50 }
  - { offsetInCU: 0x18019, offset: 0x18019, size: 0x8, addend: 0x0, symName: __ZNSt12length_errorC1B7v160006EPKc, symObjAddr: 0x13F0, symBinAddr: 0x100004CC0, symSize: 0x30 }
  - { offsetInCU: 0x1821E, offset: 0x1821E, size: 0x8, addend: 0x0, symName: __ZNSt3__16vectorIiNS_9allocatorIiEEE6assignIPiLi0EEEvT_S6_, symObjAddr: 0x16A0, symBinAddr: 0x100004F70, symSize: 0x260 }
  - { offsetInCU: 0x18BD2, offset: 0x18BD2, size: 0x8, addend: 0x0, symName: __ZNKSt3__16vectorIiNS_9allocatorIiEEE20__throw_length_errorB7v160006Ev, symObjAddr: 0x1900, symBinAddr: 0x1000051D0, symSize: 0x10 }
  - { offsetInCU: 0x18BFC, offset: 0x18BFC, size: 0x8, addend: 0x0, symName: __ZNSt3__130__uninitialized_allocator_copyB7v160006INS_9allocatorINS_6vectorIiNS1_IiEEEEEEPS4_S6_S6_EET2_RT_T0_T1_S7_, symObjAddr: 0x1910, symBinAddr: 0x1000051E0, symSize: 0x1E0 }
  - { offsetInCU: 0x18D7D, offset: 0x18D7D, size: 0x8, addend: 0x0, symName: __ZNSt3__128__exception_guard_exceptionsINS_29_AllocatorDestroyRangeReverseINS_9allocatorINS_6vectorIiNS2_IiEEEEEEPS5_EEED1B7v160006Ev, symObjAddr: 0x1AF0, symBinAddr: 0x1000053C0, symSize: 0x50 }
  - { offsetInCU: 0x197BF, offset: 0x197BF, size: 0x8, addend: 0x0, symName: __ZNKSt3__16vectorINS0_IdNS_9allocatorIdEEEENS1_IS3_EEE20__throw_length_errorB7v160006Ev, symObjAddr: 0x20A0, symBinAddr: 0x100005970, symSize: 0x10 }
  - { offsetInCU: 0x197E9, offset: 0x197E9, size: 0x8, addend: 0x0, symName: __ZNSt3__110__function6__funcIPFvRNS_6vectorINS2_IiNS_9allocatorIiEEEENS3_IS5_EEEEENS3_ISA_EES9_ED1Ev, symObjAddr: 0x20B0, symBinAddr: 0x100005980, symSize: 0x10 }
  - { offsetInCU: 0x197F4, offset: 0x197F4, size: 0x8, addend: 0x0, symName: __ZNSt3__114__split_bufferINS_6vectorIdNS_9allocatorIdEEEERNS2_IS4_EEED1Ev, symObjAddr: 0x2040, symBinAddr: 0x100005910, symSize: 0x60 }
  - { offsetInCU: 0x19ABA, offset: 0x19ABA, size: 0x8, addend: 0x0, symName: __ZNSt3__110__function6__funcIPFvRNS_6vectorINS2_IiNS_9allocatorIiEEEENS3_IS5_EEEEENS3_ISA_EES9_ED1Ev, symObjAddr: 0x20B0, symBinAddr: 0x100005980, symSize: 0x10 }
  - { offsetInCU: 0x19AE6, offset: 0x19AE6, size: 0x8, addend: 0x0, symName: __ZNSt3__110__function6__funcIPFvRNS_6vectorINS2_IiNS_9allocatorIiEEEENS3_IS5_EEEEENS3_ISA_EES9_ED0Ev, symObjAddr: 0x20C0, symBinAddr: 0x100005990, symSize: 0x10 }
  - { offsetInCU: 0x19CE9, offset: 0x19CE9, size: 0x8, addend: 0x0, symName: __ZNKSt3__110__function6__funcIPFvRNS_6vectorINS2_IiNS_9allocatorIiEEEENS3_IS5_EEEEENS3_ISA_EES9_E7__cloneEv, symObjAddr: 0x20D0, symBinAddr: 0x1000059A0, symSize: 0x30 }
  - { offsetInCU: 0x1A009, offset: 0x1A009, size: 0x8, addend: 0x0, symName: __ZNKSt3__110__function6__funcIPFvRNS_6vectorINS2_IiNS_9allocatorIiEEEENS3_IS5_EEEEENS3_ISA_EES9_E7__cloneEPNS0_6__baseIS9_EE, symObjAddr: 0x2100, symBinAddr: 0x1000059D0, symSize: 0x20 }
  - { offsetInCU: 0x1A185, offset: 0x1A185, size: 0x8, addend: 0x0, symName: __ZNSt3__110__function6__funcIPFvRNS_6vectorINS2_IiNS_9allocatorIiEEEENS3_IS5_EEEEENS3_ISA_EES9_E7destroyEv, symObjAddr: 0x2120, symBinAddr: 0x1000059F0, symSize: 0x10 }
  - { offsetInCU: 0x1A1D8, offset: 0x1A1D8, size: 0x8, addend: 0x0, symName: __ZNSt3__110__function6__funcIPFvRNS_6vectorINS2_IiNS_9allocatorIiEEEENS3_IS5_EEEEENS3_ISA_EES9_E18destroy_deallocateEv, symObjAddr: 0x2130, symBinAddr: 0x100005A00, symSize: 0x10 }
  - { offsetInCU: 0x1A2FB, offset: 0x1A2FB, size: 0x8, addend: 0x0, symName: __ZNSt3__110__function6__funcIPFvRNS_6vectorINS2_IiNS_9allocatorIiEEEENS3_IS5_EEEEENS3_ISA_EES9_EclES8_, symObjAddr: 0x2140, symBinAddr: 0x100005A10, symSize: 0x10 }
  - { offsetInCU: 0x1A3FE, offset: 0x1A3FE, size: 0x8, addend: 0x0, symName: __ZNKSt3__110__function6__funcIPFvRNS_6vectorINS2_IiNS_9allocatorIiEEEENS3_IS5_EEEEENS3_ISA_EES9_E6targetERKSt9type_info, symObjAddr: 0x2150, symBinAddr: 0x100005A20, symSize: 0x20 }
  - { offsetInCU: 0x1A46E, offset: 0x1A46E, size: 0x8, addend: 0x0, symName: __ZNKSt3__110__function6__funcIPFvRNS_6vectorINS2_IiNS_9allocatorIiEEEENS3_IS5_EEEEENS3_ISA_EES9_E11target_typeEv, symObjAddr: 0x2170, symBinAddr: 0x100005A40, symSize: 0x10 }
  - { offsetInCU: 0x7E08, offset: 0x227A2, size: 0x8, addend: 0x0, symName: __ZNSt3__125__throw_bad_function_callB7v160006Ev, symObjAddr: 0x1AE0, symBinAddr: 0x100007620, symSize: 0x40 }
  - { offsetInCU: 0xC2FC, offset: 0x26C96, size: 0x8, addend: 0x0, symName: __ZN16CellularAutomataC2Ei13GridDimension17BoundaryCondition16NeighborhoodType, symObjAddr: 0x0, symBinAddr: 0x100005CF0, symSize: 0x120 }
  - { offsetInCU: 0xC8C7, offset: 0x27261, size: 0x8, addend: 0x0, symName: __ZNSt3__16vectorINS0_IiNS_9allocatorIiEEEENS1_IS3_EEE8__appendEmRKS3_, symObjAddr: 0x15A0, symBinAddr: 0x1000070F0, symSize: 0x4D0 }
  - { offsetInCU: 0xD8AD, offset: 0x28247, size: 0x8, addend: 0x0, symName: __ZNSt3__16vectorIiNS_9allocatorIiEEE8__appendEmRKi, symObjAddr: 0x1070, symBinAddr: 0x100006C90, symSize: 0x460 }
  - { offsetInCU: 0xDE99, offset: 0x28833, size: 0x8, addend: 0x0, symName: __ZNSt3__16vectorINS0_IiNS_9allocatorIiEEEENS1_IS3_EEED1B7v160006Ev, symObjAddr: 0x120, symBinAddr: 0x100005E10, symSize: 0x80 }
  - { offsetInCU: 0xE298, offset: 0x28C32, size: 0x8, addend: 0x0, symName: __ZN16CellularAutomataC1Ei13GridDimension17BoundaryCondition16NeighborhoodType, symObjAddr: 0x1A0, symBinAddr: 0x100005E90, symSize: 0x10 }
  - { offsetInCU: 0xE37F, offset: 0x28D19, size: 0x8, addend: 0x0, symName: __ZN16CellularAutomata12Initialize1DERKNSt3__18functionIFvRNS0_6vectorIiNS0_9allocatorIiEEEEEEE, symObjAddr: 0x1B0, symBinAddr: 0x100005EA0, symSize: 0x80 }
  - { offsetInCU: 0xE462, offset: 0x28DFC, size: 0x8, addend: 0x0, symName: __ZN16CellularAutomata12Initialize2DERKNSt3__18functionIFvRNS0_6vectorINS2_IiNS0_9allocatorIiEEEENS3_IS5_EEEEEEE, symObjAddr: 0x230, symBinAddr: 0x100005F20, symSize: 0x80 }
  - { offsetInCU: 0xE4F3, offset: 0x28E8D, size: 0x8, addend: 0x0, symName: __ZNK16CellularAutomata9getGrid2DEv, symObjAddr: 0x2B0, symBinAddr: 0x100005FA0, symSize: 0x60 }
  - { offsetInCU: 0xE83C, offset: 0x291D6, size: 0x8, addend: 0x0, symName: __ZN16CellularAutomata11ApplyRule1DERKNSt3__18functionIFiiiEEE, symObjAddr: 0x310, symBinAddr: 0x100006000, symSize: 0x350 }
  - { offsetInCU: 0xEEE0, offset: 0x2987A, size: 0x8, addend: 0x0, symName: __ZNK16CellularAutomata20CalculateNeighbors1DEi, symObjAddr: 0x660, symBinAddr: 0x100006350, symSize: 0xB0 }
  - { offsetInCU: 0xF02C, offset: 0x299C6, size: 0x8, addend: 0x0, symName: __ZN16CellularAutomata11ApplyRule2DERKNSt3__18functionIFiiiEEE, symObjAddr: 0x710, symBinAddr: 0x100006400, symSize: 0x1B0 }
  - { offsetInCU: 0xF6CA, offset: 0x2A064, size: 0x8, addend: 0x0, symName: __ZNK16CellularAutomata20CalculateNeighbors2DEii, symObjAddr: 0x980, symBinAddr: 0x1000065B0, symSize: 0x310 }
  - { offsetInCU: 0xF93F, offset: 0x2A2D9, size: 0x8, addend: 0x0, symName: __ZNSt3__125__throw_bad_function_callB7v160006Ev, symObjAddr: 0x1AE0, symBinAddr: 0x100007620, symSize: 0x40 }
  - { offsetInCU: 0xF94A, offset: 0x2A2E4, size: 0x8, addend: 0x0, symName: __ZNSt3__16vectorINS0_IiNS_9allocatorIiEEEENS1_IS3_EEEC1ERKS5_.cold.1, symObjAddr: 0x2020, symBinAddr: 0x1000076E0, symSize: 0x50 }
  - { offsetInCU: 0xFF5F, offset: 0x2A8F9, size: 0x8, addend: 0x0, symName: __ZNK16CellularAutomata5PrintEv, symObjAddr: 0xC90, symBinAddr: 0x1000068C0, symSize: 0x1D0 }
  - { offsetInCU: 0x10481, offset: 0x2AE1B, size: 0x8, addend: 0x0, symName: __ZNSt3__118basic_stringstreamIcNS_11char_traitsIcEENS_9allocatorIcEEEC1B7v160006Ev, symObjAddr: 0xE60, symBinAddr: 0x100006A90, symSize: 0x130 }
  - { offsetInCU: 0x1057B, offset: 0x2AF15, size: 0x8, addend: 0x0, symName: __ZNSt3__118basic_stringstreamIcNS_11char_traitsIcEENS_9allocatorIcEEED1Ev, symObjAddr: 0xF90, symBinAddr: 0x100006BC0, symSize: 0x80 }
  - { offsetInCU: 0x10816, offset: 0x2B1B0, size: 0x8, addend: 0x0, symName: __Z12majorityRuleii, symObjAddr: 0x1010, symBinAddr: 0x100006C40, symSize: 0x10 }
  - { offsetInCU: 0x10853, offset: 0x2B1ED, size: 0x8, addend: 0x0, symName: __Z14totalisticRuleii, symObjAddr: 0x1020, symBinAddr: 0x100006C50, symSize: 0x10 }
  - { offsetInCU: 0x10890, offset: 0x2B22A, size: 0x8, addend: 0x0, symName: __Z10parityRuleii, symObjAddr: 0x1030, symBinAddr: 0x100006C60, symSize: 0x10 }
  - { offsetInCU: 0x108CD, offset: 0x2B267, size: 0x8, addend: 0x0, symName: __Z17totalisticRule_1Dii, symObjAddr: 0x1040, symBinAddr: 0x100006C70, symSize: 0x10 }
  - { offsetInCU: 0x1090A, offset: 0x2B2A4, size: 0x8, addend: 0x0, symName: __Z15majorityRule_1Dii, symObjAddr: 0x1050, symBinAddr: 0x100006C80, symSize: 0x10 }
  - { offsetInCU: 0x11199, offset: 0x2BB33, size: 0x8, addend: 0x0, symName: __ZNSt3__114__split_bufferINS_6vectorIiNS_9allocatorIiEEEERNS2_IS4_EEED1Ev, symObjAddr: 0x1A70, symBinAddr: 0x1000075C0, symSize: 0x60 }
  - { offsetInCU: 0x114BD, offset: 0x2BE57, size: 0x8, addend: 0x0, symName: __ZNSt3__117bad_function_callD1Ev, symObjAddr: 0x1B20, symBinAddr: 0x100007660, symSize: 0x10 }
  - { offsetInCU: 0x11513, offset: 0x2BEAD, size: 0x8, addend: 0x0, symName: __ZNSt3__117bad_function_callD0Ev, symObjAddr: 0x1B30, symBinAddr: 0x100007670, symSize: 0x20 }
...
