---
triple:          'x86_64-apple-darwin'
binary-path:     test_cellular_automata
relocations:
  - { offsetInCU: 0x6F2A, offset: 0x6F2A, size: 0x8, addend: 0x0, symName: __ZNSt3__124__put_character_sequenceB7v160006IcNS_11char_traitsIcEEEERNS_13basic_ostreamIT_T0_EES7_PKS4_m, symObjAddr: 0xB530, symBinAddr: 0x10000D630, symSize: 0x150 }
  - { offsetInCU: 0xCD80, offset: 0xCD80, size: 0x8, addend: 0x0, symName: __ZNSt3__125__throw_bad_function_callB7v160006Ev, symObjAddr: 0xB290, symBinAddr: 0x10000D390, symSize: 0x40 }
  - { offsetInCU: 0xCEAB, offset: 0xCEAB, size: 0x8, addend: 0x0, symName: __ZNSt3__130__uninitialized_allocator_copyB7v160006INS_9allocatorINS_6vectorIiNS1_IiEEEEEEPS4_S6_S6_EET2_RT_T0_T1_S7_, symObjAddr: 0xB300, symBinAddr: 0x10000D400, symSize: 0x1E0 }
  - { offsetInCU: 0xF760, offset: 0xF760, size: 0x8, addend: 0x0, symName: __ZNSt3__120__throw_length_errorB7v160006EPKc, symObjAddr: 0xA820, symBinAddr: 0x10000C920, symSize: 0x50 }
  - { offsetInCU: 0xFD86, offset: 0xFD86, size: 0x8, addend: 0x0, symName: __ZNSt3__116__pad_and_outputB7v160006IcNS_11char_traitsIcEEEENS_19ostreambuf_iteratorIT_T0_EES6_PKS4_S8_S8_RNS_8ios_baseES4_, symObjAddr: 0xB680, symBinAddr: 0x10000D780, symSize: 0x150 }
  - { offsetInCU: 0x11739, offset: 0x11739, size: 0x8, addend: 0x0, symName: __ZSt28__throw_bad_array_new_lengthB7v160006v, symObjAddr: 0xA8A0, symBinAddr: 0x10000C9A0, symSize: 0x40 }
  - { offsetInCU: 0x12159, offset: 0x12159, size: 0x8, addend: 0x0, symName: __ZNSt3__124uniform_int_distributionIiEclINS_23mersenne_twister_engineIjLm32ELm624ELm397ELm31ELj2567483615ELm11ELj4294967295ELm7ELj2636928640ELm15ELj4022730752ELm18ELj1812433253EEEEEiRT_RKNS1_10param_typeE, symObjAddr: 0xB7D0, symBinAddr: 0x10000D8D0, symSize: 0x230 }
  - { offsetInCU: 0x154CE, offset: 0x154CE, size: 0x8, addend: 0x0, symName: __ZN16CellularAutomataC2Ei13GridDimension17BoundaryCondition16NeighborhoodType, symObjAddr: 0x0, symBinAddr: 0x100002100, symSize: 0x120 }
  - { offsetInCU: 0x15A76, offset: 0x15A76, size: 0x8, addend: 0x0, symName: __ZNSt3__16vectorINS0_IiNS_9allocatorIiEEEENS1_IS3_EEE8__appendEmRKS3_, symObjAddr: 0xAD50, symBinAddr: 0x10000CE50, symSize: 0x4D0 }
  - { offsetInCU: 0x16A5C, offset: 0x16A5C, size: 0x8, addend: 0x0, symName: __ZNSt3__16vectorIiNS_9allocatorIiEEE8__appendEmRKi, symObjAddr: 0xA8E0, symBinAddr: 0x10000C9E0, symSize: 0x460 }
  - { offsetInCU: 0x17025, offset: 0x17025, size: 0x8, addend: 0x0, symName: __ZNKSt3__16vectorIiNS_9allocatorIiEEE20__throw_length_errorB7v160006Ev, symObjAddr: 0xAD40, symBinAddr: 0x10000CE40, symSize: 0x10 }
  - { offsetInCU: 0x1704F, offset: 0x1704F, size: 0x8, addend: 0x0, symName: __ZNSt3__16vectorINS0_IiNS_9allocatorIiEEEENS1_IS3_EEE8__appendEmRKS3_, symObjAddr: 0xAD50, symBinAddr: 0x10000CE50, symSize: 0x4D0 }
  - { offsetInCU: 0x1705A, offset: 0x1705A, size: 0x8, addend: 0x0, symName: __ZNSt3__16vectorINS0_IiNS_9allocatorIiEEEENS1_IS3_EEED1B7v160006Ev, symObjAddr: 0x120, symBinAddr: 0x100002220, symSize: 0x80 }
  - { offsetInCU: 0x17450, offset: 0x17450, size: 0x8, addend: 0x0, symName: __ZN16CellularAutomataC1Ei13GridDimension17BoundaryCondition16NeighborhoodType, symObjAddr: 0x1A0, symBinAddr: 0x1000022A0, symSize: 0x10 }
  - { offsetInCU: 0x17510, offset: 0x17510, size: 0x8, addend: 0x0, symName: __ZN16CellularAutomata12Initialize1DERKNSt3__18functionIFvRNS0_6vectorIiNS0_9allocatorIiEEEEEEE, symObjAddr: 0x1B0, symBinAddr: 0x1000022B0, symSize: 0x80 }
  - { offsetInCU: 0x175E6, offset: 0x175E6, size: 0x8, addend: 0x0, symName: __ZN16CellularAutomata12Initialize2DERKNSt3__18functionIFvRNS0_6vectorINS2_IiNS0_9allocatorIiEEEENS3_IS5_EEEEEEE, symObjAddr: 0x230, symBinAddr: 0x100002330, symSize: 0x80 }
  - { offsetInCU: 0x1766A, offset: 0x1766A, size: 0x8, addend: 0x0, symName: __ZNK16CellularAutomata9getGrid2DEv, symObjAddr: 0x2B0, symBinAddr: 0x1000023B0, symSize: 0x60 }
  - { offsetInCU: 0x179B3, offset: 0x179B3, size: 0x8, addend: 0x0, symName: __ZN16CellularAutomata11ApplyRule1DERKNSt3__18functionIFiiiEEE, symObjAddr: 0x310, symBinAddr: 0x100002410, symSize: 0x350 }
  - { offsetInCU: 0x18057, offset: 0x18057, size: 0x8, addend: 0x0, symName: __ZNK16CellularAutomata20CalculateNeighbors1DEi, symObjAddr: 0x660, symBinAddr: 0x100002760, symSize: 0xB0 }
  - { offsetInCU: 0x181A3, offset: 0x181A3, size: 0x8, addend: 0x0, symName: __ZN16CellularAutomata11ApplyRule2DERKNSt3__18functionIFiiiEEE, symObjAddr: 0x710, symBinAddr: 0x100002810, symSize: 0x1B0 }
  - { offsetInCU: 0x186C2, offset: 0x186C2, size: 0x8, addend: 0x0, symName: __ZNSt3__16vectorINS0_IiNS_9allocatorIiEEEENS1_IS3_EEEC1ERKS5_, symObjAddr: 0x8C0, symBinAddr: 0x1000029C0, symSize: 0xC0 }
  - { offsetInCU: 0x18935, offset: 0x18935, size: 0x8, addend: 0x0, symName: __ZNK16CellularAutomata20CalculateNeighbors2DEii, symObjAddr: 0x980, symBinAddr: 0x100002A80, symSize: 0x310 }
  - { offsetInCU: 0x18B92, offset: 0x18B92, size: 0x8, addend: 0x0, symName: __ZNKSt3__16vectorINS0_IiNS_9allocatorIiEEEENS1_IS3_EEE20__throw_length_errorB7v160006Ev, symObjAddr: 0xB280, symBinAddr: 0x10000D380, symSize: 0x10 }
  - { offsetInCU: 0x18BBC, offset: 0x18BBC, size: 0x8, addend: 0x0, symName: __ZNSt3__125__throw_bad_function_callB7v160006Ev, symObjAddr: 0xB290, symBinAddr: 0x10000D390, symSize: 0x40 }
  - { offsetInCU: 0x18BC7, offset: 0x18BC7, size: 0x8, addend: 0x0, symName: __ZNSt3__16vectorINS0_IiNS_9allocatorIiEEEENS1_IS3_EEEC1ERKS5_.cold.1, symObjAddr: 0xBC70, symBinAddr: 0x10000DD70, symSize: 0x50 }
  - { offsetInCU: 0x191DC, offset: 0x191DC, size: 0x8, addend: 0x0, symName: __ZNK16CellularAutomata5PrintEv, symObjAddr: 0xC90, symBinAddr: 0x100002D90, symSize: 0x1D0 }
  - { offsetInCU: 0x196FE, offset: 0x196FE, size: 0x8, addend: 0x0, symName: __ZNSt3__118basic_stringstreamIcNS_11char_traitsIcEENS_9allocatorIcEEEC1B7v160006Ev, symObjAddr: 0xE60, symBinAddr: 0x100002F60, symSize: 0x130 }
  - { offsetInCU: 0x197F8, offset: 0x197F8, size: 0x8, addend: 0x0, symName: __ZNSt3__118basic_stringstreamIcNS_11char_traitsIcEENS_9allocatorIcEEED1Ev, symObjAddr: 0xF90, symBinAddr: 0x100003090, symSize: 0x80 }
  - { offsetInCU: 0x19A93, offset: 0x19A93, size: 0x8, addend: 0x0, symName: __Z12majorityRuleii, symObjAddr: 0x1010, symBinAddr: 0x100003110, symSize: 0x10 }
  - { offsetInCU: 0x19ACD, offset: 0x19ACD, size: 0x8, addend: 0x0, symName: __Z14totalisticRuleii, symObjAddr: 0x1020, symBinAddr: 0x100003120, symSize: 0x10 }
  - { offsetInCU: 0x19B07, offset: 0x19B07, size: 0x8, addend: 0x0, symName: __Z10parityRuleii, symObjAddr: 0x1030, symBinAddr: 0x100003130, symSize: 0x10 }
  - { offsetInCU: 0x19B41, offset: 0x19B41, size: 0x8, addend: 0x0, symName: __Z17totalisticRule_1Dii, symObjAddr: 0x1040, symBinAddr: 0x100003140, symSize: 0x10 }
  - { offsetInCU: 0x19B7B, offset: 0x19B7B, size: 0x8, addend: 0x0, symName: __Z15majorityRule_1Dii, symObjAddr: 0x1050, symBinAddr: 0x100003150, symSize: 0x10 }
  - { offsetInCU: 0x19F83, offset: 0x19F83, size: 0x8, addend: 0x0, symName: __Z10initGrid1DRNSt3__16vectorIiNS_9allocatorIiEEEE, symObjAddr: 0x1060, symBinAddr: 0x100003160, symSize: 0x170 }
  - { offsetInCU: 0x1A61E, offset: 0x1A61E, size: 0x8, addend: 0x0, symName: __Z13rule1DExampleii, symObjAddr: 0x11D0, symBinAddr: 0x1000032D0, symSize: 0x10 }
  - { offsetInCU: 0x1A83A, offset: 0x1A83A, size: 0x8, addend: 0x0, symName: __Z10initGrid2DRNSt3__16vectorINS0_IiNS_9allocatorIiEEEENS1_IS3_EEEE, symObjAddr: 0x11E0, symBinAddr: 0x1000032E0, symSize: 0x230 }
  - { offsetInCU: 0x1B60C, offset: 0x1B60C, size: 0x8, addend: 0x0, symName: __Z23PrintToFile_2D_majorityR16CellularAutomataRKNSt3__112basic_stringIcNS1_11char_traitsIcEENS1_9allocatorIcEEEE, symObjAddr: 0x1410, symBinAddr: 0x100003510, symSize: 0x430 }
  - { offsetInCU: 0x1BFBD, offset: 0x1BFBD, size: 0x8, addend: 0x0, symName: __ZNSt3__114basic_ofstreamIcNS_11char_traitsIcEEEC1ERKNS_12basic_stringIcS2_NS_9allocatorIcEEEEj, symObjAddr: 0x1840, symBinAddr: 0x100003940, symSize: 0x120 }
  - { offsetInCU: 0x1C1AD, offset: 0x1C1AD, size: 0x8, addend: 0x0, symName: __ZNSt3__114basic_ofstreamIcNS_11char_traitsIcEEED1Ev, symObjAddr: 0x1960, symBinAddr: 0x100003A60, symSize: 0x50 }
  - { offsetInCU: 0x1C1F7, offset: 0x1C1F7, size: 0x8, addend: 0x0, symName: __Z21PrintToFile_2D_parityR16CellularAutomataRKNSt3__112basic_stringIcNS1_11char_traitsIcEENS1_9allocatorIcEEEE, symObjAddr: 0x19B0, symBinAddr: 0x100003AB0, symSize: 0x430 }
  - { offsetInCU: 0x1CBA8, offset: 0x1CBA8, size: 0x8, addend: 0x0, symName: __Z25PrintToFile_2D_totalisticR16CellularAutomataRKNSt3__112basic_stringIcNS1_11char_traitsIcEENS1_9allocatorIcEEEE, symObjAddr: 0x1DE0, symBinAddr: 0x100003EE0, symSize: 0x430 }
  - { offsetInCU: 0x1D559, offset: 0x1D559, size: 0x8, addend: 0x0, symName: __Z23PrintToFile_1D_majorityR16CellularAutomataRKNSt3__112basic_stringIcNS1_11char_traitsIcEENS1_9allocatorIcEEEE, symObjAddr: 0x2210, symBinAddr: 0x100004310, symSize: 0x3B0 }
  - { offsetInCU: 0x1DE0D, offset: 0x1DE0D, size: 0x8, addend: 0x0, symName: __Z21PrintToFile_1D_parityR16CellularAutomataRKNSt3__112basic_stringIcNS1_11char_traitsIcEENS1_9allocatorIcEEEE, symObjAddr: 0x25C0, symBinAddr: 0x1000046C0, symSize: 0x3B0 }
  - { offsetInCU: 0x1E6C1, offset: 0x1E6C1, size: 0x8, addend: 0x0, symName: __Z25PrintToFile_1D_totalisticR16CellularAutomataRKNSt3__112basic_stringIcNS1_11char_traitsIcEENS1_9allocatorIcEEEE, symObjAddr: 0x2970, symBinAddr: 0x100004A70, symSize: 0x3B0 }
  - { offsetInCU: 0x1F940, offset: 0x1F940, size: 0x8, addend: 0x0, symName: _main, symObjAddr: 0x2D20, symBinAddr: 0x100004E20, symSize: 0x7A60 }
  - { offsetInCU: 0x4180C, offset: 0x4180C, size: 0x8, addend: 0x0, symName: __ZN16CellularAutomataD1Ev, symObjAddr: 0xA780, symBinAddr: 0x10000C880, symSize: 0x90 }
  - { offsetInCU: 0x41C6D, offset: 0x41C6D, size: 0x8, addend: 0x0, symName: __ZNSt12length_errorC1B7v160006EPKc, symObjAddr: 0xA870, symBinAddr: 0x10000C970, symSize: 0x30 }
  - { offsetInCU: 0x424E8, offset: 0x424E8, size: 0x8, addend: 0x0, symName: __ZNSt3__114__split_bufferINS_6vectorIiNS_9allocatorIiEEEERNS2_IS4_EEED1Ev, symObjAddr: 0xB220, symBinAddr: 0x10000D320, symSize: 0x60 }
  - { offsetInCU: 0x4280C, offset: 0x4280C, size: 0x8, addend: 0x0, symName: __ZNSt3__117bad_function_callD1Ev, symObjAddr: 0xB2D0, symBinAddr: 0x10000D3D0, symSize: 0x10 }
  - { offsetInCU: 0x42862, offset: 0x42862, size: 0x8, addend: 0x0, symName: __ZNSt3__117bad_function_callD0Ev, symObjAddr: 0xB2E0, symBinAddr: 0x10000D3E0, symSize: 0x20 }
  - { offsetInCU: 0x42996, offset: 0x42996, size: 0x8, addend: 0x0, symName: __ZNSt3__128__exception_guard_exceptionsINS_29_AllocatorDestroyRangeReverseINS_9allocatorINS_6vectorIiNS2_IiEEEEEEPS5_EEED1B7v160006Ev, symObjAddr: 0xB4E0, symBinAddr: 0x10000D5E0, symSize: 0x50 }
  - { offsetInCU: 0x42F7A, offset: 0x42F7A, size: 0x8, addend: 0x0, symName: __ZNSt3__110__function6__funcIPFiiiENS_9allocatorIS3_EES2_ED1Ev, symObjAddr: 0xBA00, symBinAddr: 0x10000DB00, symSize: 0x10 }
  - { offsetInCU: 0x42FA6, offset: 0x42FA6, size: 0x8, addend: 0x0, symName: __ZNSt3__110__function6__funcIPFiiiENS_9allocatorIS3_EES2_ED0Ev, symObjAddr: 0xBA10, symBinAddr: 0x10000DB10, symSize: 0x10 }
  - { offsetInCU: 0x431AB, offset: 0x431AB, size: 0x8, addend: 0x0, symName: __ZNKSt3__110__function6__funcIPFiiiENS_9allocatorIS3_EES2_E7__cloneEv, symObjAddr: 0xBA20, symBinAddr: 0x10000DB20, symSize: 0x30 }
  - { offsetInCU: 0x434CB, offset: 0x434CB, size: 0x8, addend: 0x0, symName: __ZNKSt3__110__function6__funcIPFiiiENS_9allocatorIS3_EES2_E7__cloneEPNS0_6__baseIS2_EE, symObjAddr: 0xBA50, symBinAddr: 0x10000DB50, symSize: 0x20 }
  - { offsetInCU: 0x43647, offset: 0x43647, size: 0x8, addend: 0x0, symName: __ZNSt3__110__function6__funcIPFiiiENS_9allocatorIS3_EES2_E7destroyEv, symObjAddr: 0xBA70, symBinAddr: 0x10000DB70, symSize: 0x10 }
  - { offsetInCU: 0x4369A, offset: 0x4369A, size: 0x8, addend: 0x0, symName: __ZNSt3__110__function6__funcIPFiiiENS_9allocatorIS3_EES2_E18destroy_deallocateEv, symObjAddr: 0xBA80, symBinAddr: 0x10000DB80, symSize: 0x10 }
  - { offsetInCU: 0x437D9, offset: 0x437D9, size: 0x8, addend: 0x0, symName: __ZNSt3__110__function6__funcIPFiiiENS_9allocatorIS3_EES2_EclEOiS7_, symObjAddr: 0xBA90, symBinAddr: 0x10000DB90, symSize: 0x10 }
  - { offsetInCU: 0x438FF, offset: 0x438FF, size: 0x8, addend: 0x0, symName: __ZNKSt3__110__function6__funcIPFiiiENS_9allocatorIS3_EES2_E6targetERKSt9type_info, symObjAddr: 0xBAA0, symBinAddr: 0x10000DBA0, symSize: 0x20 }
  - { offsetInCU: 0x4396F, offset: 0x4396F, size: 0x8, addend: 0x0, symName: __ZNKSt3__110__function6__funcIPFiiiENS_9allocatorIS3_EES2_E11target_typeEv, symObjAddr: 0xBAC0, symBinAddr: 0x10000DBC0, symSize: 0x10 }
  - { offsetInCU: 0x43996, offset: 0x43996, size: 0x8, addend: 0x0, symName: __ZNSt3__110__function6__funcIPFvRNS_6vectorINS2_IiNS_9allocatorIiEEEENS3_IS5_EEEEENS3_ISA_EES9_ED1Ev, symObjAddr: 0xBAD0, symBinAddr: 0x10000DBD0, symSize: 0x10 }
  - { offsetInCU: 0x439C2, offset: 0x439C2, size: 0x8, addend: 0x0, symName: __ZNSt3__110__function6__funcIPFvRNS_6vectorINS2_IiNS_9allocatorIiEEEENS3_IS5_EEEEENS3_ISA_EES9_ED0Ev, symObjAddr: 0xBAE0, symBinAddr: 0x10000DBE0, symSize: 0x10 }
  - { offsetInCU: 0x43BC7, offset: 0x43BC7, size: 0x8, addend: 0x0, symName: __ZNKSt3__110__function6__funcIPFvRNS_6vectorINS2_IiNS_9allocatorIiEEEENS3_IS5_EEEEENS3_ISA_EES9_E7__cloneEv, symObjAddr: 0xBAF0, symBinAddr: 0x10000DBF0, symSize: 0x30 }
  - { offsetInCU: 0x43EE7, offset: 0x43EE7, size: 0x8, addend: 0x0, symName: __ZNKSt3__110__function6__funcIPFvRNS_6vectorINS2_IiNS_9allocatorIiEEEENS3_IS5_EEEEENS3_ISA_EES9_E7__cloneEPNS0_6__baseIS9_EE, symObjAddr: 0xBB20, symBinAddr: 0x10000DC20, symSize: 0x20 }
  - { offsetInCU: 0x44063, offset: 0x44063, size: 0x8, addend: 0x0, symName: __ZNSt3__110__function6__funcIPFvRNS_6vectorINS2_IiNS_9allocatorIiEEEENS3_IS5_EEEEENS3_ISA_EES9_E7destroyEv, symObjAddr: 0xBB40, symBinAddr: 0x10000DC40, symSize: 0x10 }
  - { offsetInCU: 0x440B6, offset: 0x440B6, size: 0x8, addend: 0x0, symName: __ZNSt3__110__function6__funcIPFvRNS_6vectorINS2_IiNS_9allocatorIiEEEENS3_IS5_EEEEENS3_ISA_EES9_E18destroy_deallocateEv, symObjAddr: 0xBB50, symBinAddr: 0x10000DC50, symSize: 0x10 }
  - { offsetInCU: 0x44188, offset: 0x44188, size: 0x8, addend: 0x0, symName: __ZNSt3__110__function6__funcIPFvRNS_6vectorINS2_IiNS_9allocatorIiEEEENS3_IS5_EEEEENS3_ISA_EES9_EclES8_, symObjAddr: 0xBB60, symBinAddr: 0x10000DC60, symSize: 0x10 }
  - { offsetInCU: 0x44236, offset: 0x44236, size: 0x8, addend: 0x0, symName: __ZNKSt3__110__function6__funcIPFvRNS_6vectorINS2_IiNS_9allocatorIiEEEENS3_IS5_EEEEENS3_ISA_EES9_E6targetERKSt9type_info, symObjAddr: 0xBB70, symBinAddr: 0x10000DC70, symSize: 0x20 }
  - { offsetInCU: 0x442A6, offset: 0x442A6, size: 0x8, addend: 0x0, symName: __ZNKSt3__110__function6__funcIPFvRNS_6vectorINS2_IiNS_9allocatorIiEEEENS3_IS5_EEEEENS3_ISA_EES9_E11target_typeEv, symObjAddr: 0xBB90, symBinAddr: 0x10000DC90, symSize: 0x10 }
  - { offsetInCU: 0x442CD, offset: 0x442CD, size: 0x8, addend: 0x0, symName: __ZNSt3__110__function6__funcIPFvRNS_6vectorIiNS_9allocatorIiEEEEENS3_IS8_EES7_ED1Ev, symObjAddr: 0xBBA0, symBinAddr: 0x10000DCA0, symSize: 0x10 }
  - { offsetInCU: 0x442F9, offset: 0x442F9, size: 0x8, addend: 0x0, symName: __ZNSt3__110__function6__funcIPFvRNS_6vectorIiNS_9allocatorIiEEEEENS3_IS8_EES7_ED0Ev, symObjAddr: 0xBBB0, symBinAddr: 0x10000DCB0, symSize: 0x10 }
  - { offsetInCU: 0x444FE, offset: 0x444FE, size: 0x8, addend: 0x0, symName: __ZNKSt3__110__function6__funcIPFvRNS_6vectorIiNS_9allocatorIiEEEEENS3_IS8_EES7_E7__cloneEv, symObjAddr: 0xBBC0, symBinAddr: 0x10000DCC0, symSize: 0x30 }
  - { offsetInCU: 0x4481E, offset: 0x4481E, size: 0x8, addend: 0x0, symName: __ZNKSt3__110__function6__funcIPFvRNS_6vectorIiNS_9allocatorIiEEEEENS3_IS8_EES7_E7__cloneEPNS0_6__baseIS7_EE, symObjAddr: 0xBBF0, symBinAddr: 0x10000DCF0, symSize: 0x20 }
  - { offsetInCU: 0x4499A, offset: 0x4499A, size: 0x8, addend: 0x0, symName: __ZNSt3__110__function6__funcIPFvRNS_6vectorIiNS_9allocatorIiEEEEENS3_IS8_EES7_E7destroyEv, symObjAddr: 0xBC10, symBinAddr: 0x10000DD10, symSize: 0x10 }
  - { offsetInCU: 0x449ED, offset: 0x449ED, size: 0x8, addend: 0x0, symName: __ZNSt3__110__function6__funcIPFvRNS_6vectorIiNS_9allocatorIiEEEEENS3_IS8_EES7_E18destroy_deallocateEv, symObjAddr: 0xBC20, symBinAddr: 0x10000DD20, symSize: 0x10 }
  - { offsetInCU: 0x44ABF, offset: 0x44ABF, size: 0x8, addend: 0x0, symName: __ZNSt3__110__function6__funcIPFvRNS_6vectorIiNS_9allocatorIiEEEEENS3_IS8_EES7_EclES6_, symObjAddr: 0xBC30, symBinAddr: 0x10000DD30, symSize: 0x10 }
  - { offsetInCU: 0x44B6D, offset: 0x44B6D, size: 0x8, addend: 0x0, symName: __ZNKSt3__110__function6__funcIPFvRNS_6vectorIiNS_9allocatorIiEEEEENS3_IS8_EES7_E6targetERKSt9type_info, symObjAddr: 0xBC40, symBinAddr: 0x10000DD40, symSize: 0x20 }
  - { offsetInCU: 0x44BDD, offset: 0x44BDD, size: 0x8, addend: 0x0, symName: __ZNKSt3__110__function6__funcIPFvRNS_6vectorIiNS_9allocatorIiEEEEENS3_IS8_EES7_E11target_typeEv, symObjAddr: 0xBC60, symBinAddr: 0x10000DD60, symSize: 0x10 }
...
